target datalayout = "e-m:e-p270:32:32-p271:32:32-p272:64:64-i64:64-i128:128-f80:128-n8:16:32:64-S128"
target triple = "x86_64-pc-linux-gnu"

%struct.ParseState = type { ptr, ptr, i32, i32, ptr, ptr, ptr, ptr, ptr, ptr, i8, ptr, ptr, ptr, ptr, ptr, ptr, i8, ptr, i32, i32, ptr, ptr, i8, i8, ptr, i8, i8, i8, i8, i8, ptr, ptr, ptr, ptr, ptr, ptr }
%struct.Var = type { %struct.Expr, i32, i16, i32, i32, i32, ptr, i32, i32, i32, i16, i32 }
%struct.Expr = type { i32 }

; Function Attrs: nounwind uwtable
define dso_local void @markVarForSelectPriv(ptr noundef %0, ptr noundef %1) #0 {
  %3 = alloca ptr, align 8
  %4 = alloca ptr, align 8
  %5 = alloca i32, align 4
  store ptr %0, ptr %3, align 8
  store ptr %1, ptr %4, align 8
  call void @llvm.lifetime.start.p0(i64 4, ptr %5) #8
  store i32 0, ptr %5, align 4
  br label %6

6:                                                ; preds = %16, %2
  %7 = load i32, ptr %5, align 4
  %8 = load ptr, ptr %4, align 8
  %9 = getelementptr inbounds nuw %struct.Var, ptr %8, i32 0, i32 7
  %10 = load i32, ptr %9, align 8
  %11 = icmp ult i32 %7, %10
  br i1 %11, label %12, label %19

12:                                               ; preds = %6
  %13 = load ptr, ptr %3, align 8
  %14 = getelementptr inbounds nuw %struct.ParseState, ptr %13, i32 0, i32 0
  %15 = load ptr, ptr %14, align 8
  store ptr %15, ptr %3, align 8
  br label %16

16:                                               ; preds = %12
  %17 = load i32, ptr %5, align 4
  %18 = add i32 %17, 1
  store i32 %18, ptr %5, align 4
  br label %6, !llvm.loop !21

19:                                               ; preds = %6
  %20 = load ptr, ptr %3, align 8
  %21 = load ptr, ptr %4, align 8
  %22 = getelementptr inbounds nuw %struct.Var, ptr %21, i32 0, i32 1
  %23 = load i32, ptr %22, align 4
  %24 = load ptr, ptr %4, align 8
  %25 = getelementptr inbounds nuw %struct.Var, ptr %24, i32 0, i32 2
  %26 = load i16, ptr %25, align 8
  call void @markRTEForSelectPriv(ptr noundef %20, i32 noundef %23, i16 noundef signext %26)
  call void @llvm.lifetime.end.p0(i64 4, ptr %5) #8
  ret void
}