; Function Attrs: nounwind uwtable
define dso_local void @markVarForSelectPriv(ptr noundef readonly captures(none) %0, ptr noundef readonly captures(none) %1) local_unnamed_addr #0 {
  %3 = getelementptr inbounds nuw i8, ptr %1, i64 32
  %4 = load i32, ptr %3, align 8
  %.not = icmp eq i32 %4, 0
  br i1 %.not, label %._crit_edge, label %.lr.ph

.lr.ph:                                           ; preds = %2, %.lr.ph
  %.08 = phi i32 [ %6, %.lr.ph ], [ 0, %2 ]
  %.067 = phi ptr [ %5, %.lr.ph ], [ %0, %2 ]
  %5 = load ptr, ptr %.067, align 8
  %6 = add nuw i32 %.08, 1
  %exitcond.not = icmp eq i32 %6, %4
  br i1 %exitcond.not, label %._crit_edge, label %.lr.ph, !llvm.loop !13

._crit_edge:                                      ; preds = %.lr.ph, %2
  %.06.lcssa = phi ptr [ %0, %2 ], [ %5, %.lr.ph ]
  %7 = getelementptr inbounds nuw i8, ptr %1, i64 4
  %8 = load i32, ptr %7, align 4
  %9 = getelementptr inbounds nuw i8, ptr %1, i64 8
  %10 = load i16, ptr %9, align 8
  tail call fastcc void @markRTEForSelectPriv(ptr noundef %.06.lcssa, i32 noundef %8, i16 noundef signext %10)
  ret void
}